; Function Attrs: mustprogress uwtable
define void @_ZN6LibRaw16smal_v6_load_rawEv(ptr noundef nonnull align 8 dereferenceable(767680) %0) local_unnamed_addr #0 align 2 {
  %2 = alloca [2 x [2 x i32]], align 16
  call void @llvm.lifetime.start.p0(i64 16, ptr nonnull %2) #8
  %3 = getelementptr inbounds nuw i8, ptr %0, i64 381416
  %4 = load ptr, ptr %3, align 8, !tbaa !6
  %5 = load ptr, ptr %4, align 8, !tbaa !72
  %6 = getelementptr inbounds nuw i8, ptr %5, i64 32
  %7 = load ptr, ptr %6, align 8
  %8 = tail call noundef i32 %7(ptr noundef nonnull align 8 dereferenceable(8) %4, i64 noundef 16, i32 noundef 0)
  store i32 0, ptr %2, align 16, !tbaa !71
  %9 = tail call noundef zeroext i16 @_ZN6LibRaw4get2Ev(ptr noundef nonnull align 8 dereferenceable(767680) %0)
  %10 = zext i16 %9 to i32
  %11 = getelementptr inbounds nuw i8, ptr %2, i64 4
  store i32 %10, ptr %11, align 4, !tbaa !71
  %12 = getelementptr inbounds nuw i8, ptr %0, i64 16
  %13 = getelementptr inbounds nuw i8, ptr %0, i64 18
  %14 = load i16, ptr %13, align 2, !tbaa !74
  %15 = zext i16 %14 to i32
  %16 = load i16, ptr %12, align 8, !tbaa !75
  %17 = zext i16 %16 to i32
  %18 = mul nuw nsw i32 %17, %15
  %19 = getelementptr inbounds nuw i8, ptr %2, i64 8
  store i32 %18, ptr %19, align 8, !tbaa !71
  %20 = getelementptr inbounds nuw i8, ptr %2, i64 12
  store i32 2147483647, ptr %20, align 4, !tbaa !71
  call void @_ZN6LibRaw19smal_decode_segmentEPA2_ji(ptr noundef nonnull align 8 dereferenceable(767680) %0, ptr noundef nonnull %2, i32 noundef 0)
  call void @llvm.lifetime.end.p0(i64 16, ptr nonnull %2) #8
  ret void
}